(lp0
(lp1
I2
aI0
aI2
aI1
aI1
aI2
aI0
aa(lp2
I0
aI0
aI0
aI1
aI5
aI6
aI0
aa(lp3
I2
aI1
aI3
aI1
aI2
aI3
aI0
aa(lp4
I0
aI2
aI2
aI1
aI1
aI2
aI0
aa(lp5
I0
aI1
aI1
aI10
aI4
aI14
aI0
aa(lp6
I3
aI0
aI3
aI7
aI2
aI9
aI0
aa(lp7
I23
aI4
aI27
aI13
aI1
aI14
aI0
aa(lp8
I4
aI5
aI9
aI2
aI1
aI3
aI0
aa(lp9
I3
aI2
aI5
aI11
aI2
aI13
aI0
aa(lp10
I2
aI2
aI4
aI2
aI0
aI2
aI0
aa(lp11
I2
aI0
aI2
aI4
aI2
aI6
aI0
aa(lp12
I0
aI0
aI0
aI11
aI2
aI13
aI0
aa(lp13
I17
aI3
aI20
aI2
aI0
aI2
aI0
aa(lp14
I4
aI0
aI4
aI2
aI3
aI5
aI0
aa(lp15
I16
aI10
aI26
aI2
aI0
aI2
aI0
aa(lp16
I2
aI0
aI2
aI1
aI1
aI2
aI0
aa(lp17
I2
aI1
aI3
aI7
aI0
aI7
aI0
aa(lp18
I11
aI1
aI12
aI3
aI0
aI3
aI0
aa(lp19
I1
aI3
aI4
aI7
aI3
aI10
aI0
aa(lp20
I0
aI1
aI1
aI13
aI0
aI13
aI0
aa(lp21
I0
aI0
aI0
aI2
aI2
aI4
aI0
aa(lp22
I5
aI0
aI5
aI3
aI3
aI6
aI0
aa(lp23
I18
aI17
aI35
aI1
aI3
aI4
aI0
aa(lp24
I12
aI0
aI12
aI0
aI0
aI0
aI0
aa(lp25
I1
aI0
aI1
aI3
aI11
aI14
aI0
aa(lp26
I1
aI1
aI2
aI4
aI1
aI5
aI0
aa(lp27
I3
aI0
aI3
aI0
aI1
aI1
aI0
aa(lp28
I15
aI2
aI17
aI5
aI1
aI6
aI0
aa(lp29
I0
aI1
aI1
aI0
aI2
aI2
aI0
aa(lp30
I1
aI8
aI9
aI0
aI0
aI0
aI0
aa(lp31
I8
aI0
aI8
aI1
aI0
aI1
aI0
aa(lp32
I0
aI0
aI0
aI2
aI1
aI3
aI0
aa(lp33
I3
aI1
aI4
aI1
aI0
aI1
aI0
aa(lp34
I0
aI0
aI0
aI1
aI0
aI1
aI0
aa(lp35
I6
aI12
aI18
aI3
aI1
aI4
aI0
aa(lp36
I4
aI1
aI5
aI0
aI2
aI2
aI0
aa(lp37
I8
aI0
aI8
aI5
aI6
aI11
aI0
aa(lp38
I8
aI0
aI8
aI0
aI0
aI0
aI0
aa(lp39
I1
aI0
aI1
aI11
aI1
aI12
aI0
aa(lp40
I12
aI9
aI21
aI15
aI2
aI17
aI0
aa(lp41
I4
aI4
aI8
aI1
aI1
aI2
aI0
aa(lp42
I0
aI0
aI0
aI0
aI0
aI0
aI0
aa(lp43
I13
aI2
aI15
aI6
aI0
aI6
aI1
aa(lp44
I4
aI1
aI5
aI6
aI6
aI12
aI0
aa(lp45
I6
aI1
aI7
aI2
aI1
aI3
aI0
aa(lp46
I4
aI0
aI4
aI9
aI3
aI12
aI0
aa(lp47
I8
aI2
aI10
aI7
aI1
aI8
aI0
aa(lp48
I1
aI0
aI1
aI3
aI0
aI3
aI0
aa(lp49
I1
aI0
aI1
aI5
aI3
aI8
aI0
aa(lp50
I0
aI6
aI6
aI0
aI0
aI0
aI0
aa(lp51
I0
aI0
aI0
aI6
aI0
aI6
aI0
aa(lp52
I0
aI0
aI0
aI0
aI1
aI1
aI0
aa(lp53
I0
aI0
aI0
aI3
aI0
aI3
aI0
aa(lp54
I6
aI5
aI11
aI0
aI0
aI0
aI0
aa(lp55
I12
aI3
aI15
aI1
aI0
aI1
aI0
aa(lp56
I1
aI0
aI1
aI11
aI3
aI14
aI0
aa(lp57
I8
aI3
aI11
aI0
aI1
aI1
aI0
aa(lp58
I0
aI0
aI0
aI5
aI0
aI5
aI0
aa(lp59
I1
aI0
aI1
aI3
aI11
aI14
aI0
aa(lp60
I11
aI6
aI17
aI0
aI1
aI1
aI0
aa(lp61
I1
aI0
aI1
aI3
aI0
aI3
aI0
aa(lp62
I0
aI0
aI0
aI5
aI0
aI5
aI0
aa(lp63
I2
aI4
aI6
aI2
aI6
aI8
aI0
aa(lp64
I0
aI2
aI2
aI0
aI0
aI0
aI0
aa(lp65
I7
aI0
aI7
aI4
aI1
aI5
aI0
aa(lp66
I1
aI0
aI1
aI1
aI1
aI2
aI0
aa(lp67
I3
aI0
aI3
aI2
aI0
aI2
aI0
aa(lp68
I1
aI0
aI1
aI2
aI3
aI5
aI0
aa(lp69
I2
aI16
aI18
aI4
aI0
aI4
aI0
aa(lp70
I2
aI0
aI2
aI7
aI0
aI7
aI0
aa(lp71
I3
aI0
aI3
aI6
aI0
aI6
aI0
aa(lp72
I0
aI2
aI2
aI5
aI6
aI11
aI0
aa(lp73
I2
aI0
aI2
aI5
aI1
aI6
aI0
aa(lp74
I0
aI1
aI1
aI1
aI3
aI4
aI0
aa(lp75
I3
aI0
aI3
aI37
aI1
aI38
aI0
aa(lp76
I2
aI0
aI2
aI2
aI0
aI2
aI0
aa(lp77
I9
aI3
aI12
aI4
aI0
aI4
aI0
aa(lp78
I3
aI0
aI3
aI0
aI0
aI0
aI0
aa(lp79
I0
aI0
aI0
aI1
aI0
aI1
aI0
aa(lp80
I16
aI9
aI25
aI1
aI1
aI2
aI0
aa(lp81
I12
aI1
aI13
aI41
aI1
aI42
aI0
aa(lp82
I1
aI0
aI1
aI0
aI1
aI1
aI0
aa(lp83
I10
aI0
aI10
aI10
aI11
aI21
aI0
aa(lp84
I2
aI0
aI2
aI0
aI0
aI0
aI0
aa(lp85
I6
aI0
aI6
aI1
aI0
aI1
aI0
aa(lp86
I26
aI1
aI27
aI12
aI1
aI13
aI0
aa(lp87
I2
aI2
aI4
aI1
aI2
aI3
aI0
aa(lp88
I3
aI0
aI3
aI3
aI0
aI3
aI0
aa(lp89
I13
aI0
aI13
aI5
aI0
aI5
aI0
aa(lp90
I3
aI5
aI8
aI18
aI6
aI24
aI0
aa(lp91
I6
aI3
aI9
aI12
aI0
aI12
aI0
aa(lp92
I0
aI1
aI1
aI6
aI2
aI8
aI0
aa(lp93
I14
aI0
aI14
aI1
aI0
aI1
aI0
aa(lp94
I4
aI2
aI6
aI0
aI0
aI0
aI0
aa(lp95
I4
aI2
aI6
aI6
aI2
aI8
aI0
aa(lp96
I0
aI0
aI0
aI1
aI2
aI3
aI0
aa(lp97
I2
aI0
aI2
aI0
aI0
aI0
aI0
aa(lp98
I0
aI0
aI0
aI10
aI0
aI10
aI0
aa(lp99
I0
aI0
aI0
aI3
aI0
aI3
aI0
aa(lp100
I1
aI0
aI1
aI4
aI2
aI6
aI0
aa(lp101
I9
aI4
aI13
aI0
aI0
aI0
aI0
aa(lp102
I2
aI1
aI3
aI0
aI1
aI1
aI0
aa(lp103
I1
aI1
aI2
aI3
aI5
aI8
aI0
aa(lp104
I0
aI0
aI0
aI8
aI3
aI11
aI0
aa(lp105
I0
aI2
aI2
aI2
aI1
aI3
aI0
aa(lp106
I1
aI0
aI1
aI0
aI0
aI0
aI0
aa(lp107
I0
aI3
aI3
aI1
aI2
aI3
aI0
aa(lp108
I11
aI0
aI11
aI21
aI4
aI25
aI0
aa(lp109
I2
aI0
aI2
aI0
aI10
aI10
aI0
aa(lp110
I1
aI5
aI6
aI1
aI0
aI1
aI0
aa(lp111
I0
aI0
aI0
aI7
aI6
aI13
aI0
aa(lp112
I0
aI21
aI21
aI2
aI3
aI5
aI0
aa(lp113
I6
aI1
aI7
aI5
aI2
aI7
aI0
aa(lp114
I7
aI0
aI7
aI1
aI0
aI1
aI0
aa(lp115
I0
aI0
aI0
aI0
aI1
aI1
aI0
aa(lp116
I4
aI0
aI4
aI2
aI3
aI5
aI0
aa(lp117
I1
aI0
aI1
aI0
aI6
aI6
aI0
aa(lp118
I6
aI0
aI6
aI4
aI1
aI5
aI0
aa(lp119
I1
aI0
aI1
aI3
aI0
aI3
aI0
aa(lp120
I4
aI1
aI5
aI4
aI3
aI7
aI0
aa(lp121
I2
aI0
aI2
aI0
aI0
aI0
aI0
aa(lp122
I12
aI5
aI17
aI10
aI10
aI20
aI0
aa(lp123
I3
aI1
aI4
aI2
aI0
aI2
aI0
aa(lp124
I6
aI2
aI8
aI0
aI8
aI8
aI0
aa(lp125
I0
aI0
aI0
aI0
aI0
aI0
aI0
aa(lp126
I0
aI0
aI0
aI2
aI8
aI10
aI0
aa(lp127
I0
aI0
aI0
aI3
aI0
aI3
aI0
aa(lp128
I19
aI0
aI19
aI7
aI1
aI8
aI0
aa(lp129
I0
aI0
aI0
aI0
aI7
aI7
aI0
aa(lp130
I5
aI0
aI5
aI11
aI2
aI13
aI0
aa(lp131
I5
aI0
aI5
aI8
aI2
aI10
aI0
aa(lp132
I2
aI0
aI2
aI0
aI0
aI0
aI0
aa(lp133
I2
aI0
aI2
aI18
aI9
aI27
aI0
aa(lp134
I9
aI1
aI10
aI0
aI0
aI0
aI0
aa(lp135
I0
aI0
aI0
aI1
aI0
aI1
aI0
aa(lp136
I76
aI12
aI88
aI4
aI9
aI13
aI2
aa(lp137
I4
aI0
aI4
aI3
aI2
aI5
aI0
aa(lp138
I0
aI0
aI0
aI0
aI0
aI0
aI0
aa(lp139
I3
aI0
aI3
aI3
aI0
aI3
aI0
aa(lp140
I13
aI0
aI13
aI11
aI1
aI12
aI0
aa(lp141
I0
aI0
aI0
aI1
aI0
aI1
aI0
aa(lp142
I12
aI7
aI19
aI0
aI0
aI0
aI0
aa(lp143
I3
aI0
aI3
aI4
aI0
aI4
aI0
aa(lp144
I0
aI0
aI0
aI1
aI0
aI1
aI0
aa(lp145
I0
aI0
aI0
aI22
aI35
aI57
aI0
aa(lp146
I1
aI0
aI1
aI6
aI1
aI7
aI0
aa(lp147
I14
aI1
aI15
aI10
aI0
aI10
aI0
aa(lp148
I10
aI3
aI13
aI1
aI0
aI1
aI0
aa(lp149
I16
aI4
aI20
aI3
aI0
aI3
aI0
aa(lp150
I8
aI1
aI9
aI1
aI1
aI2
aI0
aa(lp151
I12
aI2
aI14
aI7
aI0
aI7
aI0
aa(lp152
I2
aI1
aI3
aI1
aI0
aI1
aI0
aa(lp153
I13
aI2
aI15
aI0
aI0
aI0
aI0
aa(lp154
I4
aI8
aI12
aI3
aI0
aI3
aI0
aa(lp155
I12
aI0
aI12
aI2
aI0
aI2
aI0
aa(lp156
I0
aI0
aI0
aI1
aI0
aI1
aI0
aa(lp157
I22
aI5
aI27
aI4
aI0
aI4
aI0
aa(lp158
I0
aI0
aI0
aI5
aI5
aI10
aI0
aa(lp159
I7
aI0
aI7
aI1
aI1
aI2
aI0
aa(lp160
I28
aI5
aI33
aI10
aI3
aI13
aI0
aa(lp161
I3
aI0
aI3
aI1
aI0
aI1
aI0
aa(lp162
I7
aI6
aI13
aI8
aI8
aI16
aI0
aa(lp163
I20
aI3
aI23
aI0
aI0
aI0
aI0
aa(lp164
I6
aI1
aI7
aI0
aI2
aI2
aI0
aa(lp165
I0
aI0
aI0
aI1
aI0
aI1
aI0
aa(lp166
I21
aI2
aI23
aI1
aI1
aI2
aI0
aa(lp167
I5
aI5
aI10
aI1
aI0
aI1
aI0
aa(lp168
I4
aI0
aI4
aI2
aI1
aI3
aI0
aa(lp169
I0
aI0
aI0
aI1
aI0
aI1
aI0
aa(lp170
I2
aI0
aI2
aI1
aI0
aI1
aI0
aa(lp171
I1
aI0
aI1
aI15
aI2
aI17
aI0
aa(lp172
I0
aI1
aI1
aI1
aI0
aI1
aI0
aa(lp173
I0
aI0
aI0
aI2
aI0
aI2
aI0
aa(lp174
I13
aI32
aI45
aI4
aI4
aI8
aI0
aa(lp175
I14
aI1
aI15
aI1
aI0
aI1
aI0
aa(lp176
I6
aI0
aI6
aI20
aI11
aI31
aI0
aa(lp177
I11
aI5
aI16
aI4
aI2
aI6
aI0
aa(lp178
I1
aI0
aI1
aI6
aI3
aI9
aI0
aa(lp179
I0
aI1
aI1
aI6
aI3
aI9
aI0
aa(lp180
I12
aI2
aI14
aI3
aI1
aI4
aI0
aa(lp181
I2
aI1
aI3
aI3
aI20
aI23
aI0
aa(lp182
I3
aI1
aI4
aI1
aI2
aI3
aI0
aa(lp183
I7
aI9
aI16
aI12
aI0
aI12
aI0
aa(lp184
I2
aI2
aI4
aI2
aI0
aI2
aI0
aa(lp185
I0
aI0
aI0
aI0
aI1
aI1
aI0
aa(lp186
I1
aI0
aI1
aI16
aI6
aI22
aI0
aa(lp187
I16
aI1
aI17
aI1
aI4
aI5
aI0
aa(lp188
I4
aI1
aI5
aI2
aI0
aI2
aI0
aa(lp189
I1
aI2
aI3
aI0
aI1
aI1
aI0
aa(lp190
I14
aI12
aI26
aI9
aI12
aI21
aI1
aa(lp191
I11
aI0
aI11
aI1
aI0
aI1
aI0
aa(lp192
I10
aI0
aI10
aI52
aI9
aI61
aI0
aa(lp193
I2
aI3
aI5
aI19
aI3
aI22
aI0
aa(lp194
I0
aI0
aI0
aI11
aI3
aI14
aI0
aa(lp195
I1
aI1
aI2
aI15
aI3
aI18
aI0
aa(lp196
I1
aI0
aI1
aI4
aI2
aI6
aI0
aa(lp197
I1
aI0
aI1
aI15
aI1
aI16
aI0
aa(lp198
I1
aI0
aI1
aI13
aI2
aI15
aI0
aa(lp199
I2
aI0
aI2
aI2
aI0
aI2
aI0
aa(lp200
I0
aI1
aI1
aI0
aI0
aI0
aI0
aa(lp201
I2
aI1
aI3
aI2
aI1
aI3
aI0
aa(lp202
I0
aI0
aI0
aI0
aI0
aI0
aI0
aa(lp203
I2
aI5
aI7
aI2
aI5
aI7
aI0
aa(lp204
I6
aI1
aI7
aI0
aI4
aI4
aI0
aa(lp205
I1
aI0
aI1
aI4
aI5
aI9
aI0
aa(lp206
I0
aI0
aI0
aI0
aI0
aI0
aI0
aa(lp207
I1
aI2
aI3
aI21
aI4
aI25
aI0
aa(lp208
I3
aI0
aI3
aI0
aI1
aI1
aI0
aa(lp209
I7
aI5
aI12
aI1
aI1
aI2
aI0
aa(lp210
I1
aI0
aI1
aI0
aI0
aI0
aI0
aa(lp211
I4
aI1
aI5
aI30
aI1
aI31
aI0
aa(lp212
I4
aI1
aI5
aI2
aI1
aI3
aI0
aa(lp213
I5
aI2
aI7
aI5
aI0
aI5
aI0
aa(lp214
I16
aI8
aI24
aI7
aI3
aI10
aI0
aa(lp215
I3
aI0
aI3
aI6
aI1
aI7
aI0
aa(lp216
I12
aI9
aI21
aI11
aI2
aI13
aI1
aa(lp217
I6
aI2
aI8
aI13
aI18
aI31
aI0
aa(lp218
I1
aI1
aI2
aI6
aI4
aI10
aI0
aa(lp219
I4
aI2
aI6
aI4
aI0
aI4
aI0
aa(lp220
I22
aI35
aI57
aI2
aI1
aI3
aI0
aa(lp221
I10
aI2
aI12
aI4
aI1
aI5
aI0
aa(lp222
I5
aI7
aI12
aI4
aI2
aI6
aI0
aa(lp223
I5
aI1
aI6
aI0
aI1
aI1
aI0
aa(lp224
I0
aI0
aI0
aI1
aI0
aI1
aI0
aa(lp225
I3
aI0
aI3
aI5
aI1
aI6
aI0
aa(lp226
I10
aI4
aI14
aI2
aI0
aI2
aI0
aa(lp227
I3
aI4
aI7
aI2
aI0
aI2
aI0
aa(lp228
I0
aI0
aI0
aI2
aI1
aI3
aI0
aa(lp229
I3
aI0
aI3
aI36
aI33
aI69
aI1
aa(lp230
I6
aI7
aI13
aI1
aI1
aI2
aI0
aa(lp231
I1
aI0
aI1
aI7
aI9
aI16
aI0
aa(lp232
I3
aI5
aI8
aI2
aI0
aI2
aI0
aa(lp233
I76
aI12
aI88
aI2
aI0
aI2
aI0
aa(lp234
I9
aI4
aI13
aI8
aI0
aI8
aI0
aa(lp235
I1
aI1
aI2
aI3
aI3
aI6
aI0
aa(lp236
I15
aI5
aI20
aI0
aI0
aI0
aI0
aa(lp237
I1
aI0
aI1
aI4
aI0
aI4
aI0
aa(lp238
I1
aI0
aI1
aI1
aI0
aI1
aI0
aa(lp239
I0
aI0
aI0
aI0
aI0
aI0
aI0
aa(lp240
I8
aI0
aI8
aI0
aI0
aI0
aI0
aa(lp241
I0
aI0
aI0
aI65
aI6
aI71
aI0
aa(lp242
I3
aI18
aI21
aI0
aI3
aI3
aI0
aa(lp243
I0
aI0
aI0
aI7
aI0
aI7
aI0
aa(lp244
I12
aI3
aI15
aI16
aI10
aI26
aI0
aa(lp245
I5
aI5
aI10
aI0
aI0
aI0
aI0
aa(lp246
I0
aI0
aI0
aI13
aI0
aI13
aI0
aa(lp247
I8
aI0
aI8
aI1
aI0
aI1
aI0
aa(lp248
I4
aI2
aI6
aI0
aI0
aI0
aI0
aa(lp249
I0
aI0
aI0
aI1
aI0
aI1
aI0
aa(lp250
I7
aI0
aI7
aI0
aI0
aI0
aI0
aa(lp251
I5
aI5
aI10
aI3
aI1
aI4
aI0
aa(lp252
I20
aI0
aI20
aI0
aI0
aI0
aI0
aa(lp253
I3
aI0
aI3
aI2
aI1
aI3
aI0
aa(lp254
I9
aI7
aI16
aI1
aI2
aI3
aI0
aa(lp255
I2
aI0
aI2
aI3
aI0
aI3
aI0
aa(lp256
I7
aI2
aI9
aI0
aI0
aI0
aI0
aa(lp257
I0
aI0
aI0
aI5
aI0
aI5
aI0
aa(lp258
I4
aI9
aI13
aI2
aI4
aI6
aI0
aa(lp259
I3
aI2
aI5
aI5
aI2
aI7
aI0
aa(lp260
I1
aI0
aI1
aI3
aI0
aI3
aI0
aa(lp261
I0
aI20
aI20
aI3
aI0
aI3
aI0
aa(lp262
I1
aI0
aI1
aI10
aI23
aI33
aI0
aa(lp263
I11
aI2
aI13
aI8
aI2
aI10
aI0
aa(lp264
I0
aI1
aI1
aI12
aI4
aI16
aI0
aa(lp265
I10
aI2
aI12
aI26
aI2
aI28
aI0
aa(lp266
I4
aI0
aI4
aI7
aI1
aI8
aI0
aa(lp267
I0
aI0
aI0
aI1
aI0
aI1
aI0
aa(lp268
I2
aI0
aI2
aI3
aI3
aI6
aI0
aa(lp269
I0
aI2
aI2
aI2
aI2
aI4
aI0
aa(lp270
I76
aI12
aI88
aI3
aI5
aI8
aI0
aa(lp271
I3
aI3
aI6
aI5
aI3
aI8
aI0
aa(lp272
I4
aI2
aI6
aI2
aI0
aI2
aI0
aa(lp273
I2
aI0
aI2
aI10
aI9
aI19
aI0
aa(lp274
I0
aI0
aI0
aI1
aI0
aI1
aI0
aa(lp275
I1
aI4
aI5
aI17
aI11
aI28
aI0
aa(lp276
I0
aI7
aI7
aI1
aI0
aI1
aI0
aa(lp277
I4
aI0
aI4
aI11
aI5
aI16
aI0
aa(lp278
I4
aI1
aI5
aI6
aI1
aI7
aI0
aa(lp279
I0
aI0
aI0
aI1
aI1
aI2
aI0
aa(lp280
I7
aI1
aI8
aI1
aI0
aI1
aI0
aa(lp281
I2
aI3
aI5
aI1
aI0
aI1
aI0
aa(lp282
I2
aI0
aI2
aI1
aI0
aI1
aI0
aa(lp283
I2
aI2
aI4
aI1
aI5
aI6
aI0
aa(lp284
I10
aI0
aI10
aI2
aI0
aI2
aI0
aa(lp285
I30
aI9
aI39
aI2
aI0
aI2
aI0
aa(lp286
I3
aI0
aI3
aI11
aI6
aI17
aI0
aa(lp287
I1
aI1
aI2
aI4
aI0
aI4
aI0
aa(lp288
I3
aI0
aI3
aI5
aI0
aI5
aI0
aa(lp289
I1
aI2
aI3
aI11
aI2
aI13
aI0
aa(lp290
I0
aI1
aI1
aI1
aI0
aI1
aI0
aa(lp291
I0
aI1
aI1
aI16
aI2
aI18
aI0
aa(lp292
I2
aI0
aI2
aI0
aI0
aI0
aI0
aa(lp293
I2
aI0
aI2
aI0
aI0
aI0
aI0
aa(lp294
I2
aI0
aI2
aI1
aI1
aI2
aI0
aa(lp295
I12
aI1
aI13
aI0
aI0
aI0
aI0
aa(lp296
I17
aI0
aI17
aI9
aI15
aI24
aI0
aa(lp297
I3
aI0
aI3
aI0
aI1
aI1
aI0
aa(lp298
I1
aI1
aI2
aI2
aI2
aI4
aI0
aa(lp299
I0
aI0
aI0
aI32
aI3
aI35
aI0
aa(lp300
I1
aI0
aI1
aI0
aI0
aI0
aI0
aa(lp301
I7
aI1
aI8
aI0
aI0
aI0
aI0
aa(lp302
I5
aI0
aI5
aI0
aI1
aI1
aI0
aa(lp303
I0
aI0
aI0
aI9
aI2
aI11
aI0
aa(lp304
I1
aI0
aI1
aI4
aI2
aI6
aI0
aa(lp305
I37
aI1
aI38
aI3
aI0
aI3
aI0
aa(lp306
I8
aI1
aI9
aI2
aI0
aI2
aI0
aa(lp307
I4
aI0
aI4
aI0
aI0
aI0
aI0
aa(lp308
I19
aI4
aI23
aI4
aI0
aI4
aI0
aa(lp309
I2
aI1
aI3
aI9
aI0
aI9
aI0
aa(lp310
I0
aI0
aI0
aI1
aI0
aI1
aI0
aa(lp311
I22
aI2
aI24
aI12
aI7
aI19
aI0
aa(lp312
I1
aI0
aI1
aI9
aI2
aI11
aI0
aa(lp313
I3
aI11
aI14
aI76
aI12
aI88
aI0
aa(lp314
I13
aI3
aI16
aI4
aI1
aI5
aI0
aa(lp315
I3
aI1
aI4
aI20
aI0
aI20
aI0
aa(lp316
I9
aI1
aI10
aI0
aI0
aI0
aI0
aa(lp317
I4
aI1
aI5
aI3
aI0
aI3
aI0
aa(lp318
I36
aI33
aI69
aI20
aI3
aI23
aI0
aa(lp319
I1
aI2
aI3
aI7
aI6
aI13
aI0
aa(lp320
I0
aI1
aI1
aI0
aI0
aI0
aI0
aa(lp321
I0
aI0
aI0
aI6
aI7
aI13
aI0
aa(lp322
I8
aI4
aI12
aI7
aI0
aI7
aI0
aa(lp323
I10
aI1
aI11
aI4
aI0
aI4
aI0
aa(lp324
I3
aI0
aI3
aI0
aI0
aI0
aI0
aa(lp325
I0
aI0
aI0
aI2
aI0
aI2
aI0
aa(lp326
I56
aI6
aI62
aI0
aI0
aI0
aI0
aa(lp327
I1
aI0
aI1
aI0
aI0
aI0
aI0
aa(lp328
I6
aI2
aI8
aI1
aI0
aI1
aI0
aa(lp329
I4
aI14
aI18
aI0
aI0
aI0
aI0
aa(lp330
I2
aI0
aI2
aI7
aI1
aI8
aI0
aa(lp331
I2
aI0
aI2
aI0
aI0
aI0
aI0
aa(lp332
I3
aI2
aI5
aI2
aI3
aI5
aI0
aa(lp333
I0
aI0
aI0
aI2
aI0
aI2
aI0
aa(lp334
I0
aI9
aI9
aI1
aI4
aI5
aI0
aa(lp335
I20
aI5
aI25
aI9
aI0
aI9
aI0
aa(lp336
I1
aI0
aI1
aI2
aI0
aI2
aI0
aa(lp337
I4
aI4
aI8
aI6
aI9
aI15
aI0
aa(lp338
I1
aI4
aI5
aI0
aI0
aI0
aI0
aa(lp339
I0
aI2
aI2
aI1
aI0
aI1
aI0
aa(lp340
I0
aI3
aI3
aI0
aI2
aI2
aI1
aa(lp341
I38
aI37
aI75
aI8
aI0
aI8
aI0
aa(lp342
I8
aI3
aI11
aI13
aI0
aI13
aI0
aa(lp343
I2
aI1
aI3
aI3
aI0
aI3
aI0
aa(lp344
I14
aI0
aI14
aI1
aI0
aI1
aI0
aa(lp345
I0
aI1
aI1
aI2
aI0
aI2
aI0
aa(lp346
I13
aI0
aI13
aI0
aI0
aI0
aI0
aa(lp347
I2
aI0
aI2
aI1
aI1
aI2
aI0
aa(lp348
I5
aI2
aI7
aI9
aI2
aI11
aI0
aa(lp349
I2
aI1
aI3
aI3
aI0
aI3
aI0
aa(lp350
I0
aI1
aI1
aI2
aI2
aI4
aI0
aa(lp351
I4
aI0
aI4
aI0
aI0
aI0
aI0
aa(lp352
I4
aI1
aI5
aI2
aI0
aI2
aI0
aa(lp353
I4
aI0
aI4
aI0
aI0
aI0
aI0
aa(lp354
I3
aI0
aI3
aI6
aI1
aI7
aI0
aa(lp355
I2
aI5
aI7
aI8
aI0
aI8
aI0
aa(lp356
I2
aI0
aI2
aI4
aI0
aI4
aI0
aa(lp357
I4
aI3
aI7
aI17
aI5
aI22
aI0
aa(lp358
I11
aI0
aI11
aI1
aI0
aI1
aI0
aa(lp359
I0
aI8
aI8
aI16
aI2
aI18
aI0
aa(lp360
I0
aI0
aI0
aI3
aI0
aI3
aI0
aa(lp361
I14
aI4
aI18
aI24
aI6
aI30
aI0
aa(lp362
I2
aI0
aI2
aI0
aI1
aI1
aI0
aa(lp363
I1
aI0
aI1
aI18
aI1
aI19
aI0
aa(lp364
I0
aI1
aI1
aI5
aI2
aI7
aI0
aa(lp365
I12
aI0
aI12
aI3
aI3
aI6
aI0
aa(lp366
I2
aI5
aI7
aI6
aI5
aI11
aI0
aa(lp367
I0
aI0
aI0
aI0
aI2
aI2
aI0
aa(lp368
I7
aI3
aI10
aI33
aI9
aI42
aI0
aa(lp369
I2
aI1
aI3
aI2
aI1
aI3
aI0
aa(lp370
I22
aI1
aI23
aI0
aI0
aI0
aI0
aa(lp371
I0
aI0
aI0
aI2
aI16
aI18
aI0
aa(lp372
I2
aI1
aI3
aI6
aI3
aI9
aI0
aa(lp373
I6
aI0
aI6
aI3
aI0
aI3
aI0
aa(lp374
I3
aI3
aI6
aI2
aI0
aI2
aI0
aa(lp375
I2
aI0
aI2
aI12
aI0
aI12
aI0
aa(lp376
I9
aI3
aI12
aI2
aI0
aI2
aI0
aa(lp377
I1
aI8
aI9
aI0
aI0
aI0
aI0
aa(lp378
I16
aI0
aI16
aI5
aI2
aI7
aI0
aa(lp379
I20
aI3
aI23
aI1
aI0
aI1
aI0
aa(lp380
I5
aI1
aI6
aI14
aI1
aI15
aI0
aa(lp381
I1
aI0
aI1
aI1
aI7
aI8
aI0
aa(lp382
I1
aI0
aI1
aI3
aI0
aI3
aI0
aa(lp383
I0
aI0
aI0
aI0
aI0
aI0
aI0
aa(lp384
I1
aI1
aI2
aI8
aI6
aI14
aI0
aa(lp385
I1
aI0
aI1
aI1
aI0
aI1
aI0
aa(lp386
I1
aI0
aI1
aI3
aI1
aI4
aI0
aa(lp387
I3
aI3
aI6
aI2
aI0
aI2
aI0
aa(lp388
I0
aI1
aI1
aI1
aI1
aI2
aI0
aa(lp389
I1
aI1
aI2
aI6
aI0
aI6
aI0
aa(lp390
I11
aI3
aI14
aI1
aI0
aI1
aI0
aa(lp391
I1
aI0
aI1
aI3
aI0
aI3
aI0
aa(lp392
I1
aI0
aI1
aI1
aI0
aI1
aI0
aa(lp393
I2
aI0
aI2
aI10
aI4
aI14
aI0
aa(lp394
I4
aI1
aI5
aI0
aI3
aI3
aI0
aa(lp395
I1
aI0
aI1
aI5
aI0
aI5
aI0
aa(lp396
I2
aI4
aI6
aI15
aI7
aI22
aI2
aa(lp397
I6
aI3
aI9
aI4
aI3
aI7
aI0
aa(lp398
I0
aI0
aI0
aI3
aI1
aI4
aI0
aa(lp399
I1
aI0
aI1
aI19
aI6
aI25
aI0
aa(lp400
I1
aI1
aI2
aI0
aI0
aI0
aI0
aa(lp401
I2
aI0
aI2
aI6
aI2
aI8
aI0
aa(lp402
I3
aI0
aI3
aI4
aI0
aI4
aI0
aa(lp403
I1
aI1
aI2
aI3
aI9
aI12
aI0
aa(lp404
I4
aI2
aI6
aI12
aI1
aI13
aI0
aa(lp405
I0
aI3
aI3
aI0
aI2
aI2
aI0
aa(lp406
I3
aI0
aI3
aI1
aI0
aI1
aI0
aa(lp407
I33
aI9
aI42
aI1
aI3
aI4
aI0
aa(lp408
I4
aI0
aI4
aI8
aI2
aI10
aI0
aa(lp409
I2
aI0
aI2
aI0
aI0
aI0
aI0
aa(lp410
I65
aI6
aI71
aI1
aI0
aI1
aI0
aa(lp411
I7
aI3
aI10
aI2
aI0
aI2
aI0
aa(lp412
I2
aI4
aI6
aI4
aI0
aI4
aI0
aa(lp413
I13
aI4
aI17
aI22
aI35
aI57
aI0
aa(lp414
I3
aI0
aI3
aI0
aI0
aI0
aI0
aa(lp415
I11
aI4
aI15
aI0
aI8
aI8
aI0
aa(lp416
I1
aI0
aI1
aI3
aI3
aI6
aI0
aa(lp417
I10
aI1
aI11
aI0
aI0
aI0
aI0
aa(lp418
I1
aI0
aI1
aI13
aI4
aI17
aI0
aa(lp419
I0
aI3
aI3
aI0
aI21
aI21
aI0
aa(lp420
I2
aI0
aI2
aI0
aI0
aI0
aI0
aa(lp421
I6
aI0
aI6
aI10
aI6
aI16
aI1
aa(lp422
I3
aI18
aI21
aI2
aI4
aI6
aI0
aa(lp423
I6
aI3
aI9
aI0
aI1
aI1
aI0
aa(lp424
I3
aI0
aI3
aI0
aI0
aI0
aI0
aa(lp425
I3
aI0
aI3
aI3
aI1
aI4
aI0
aa(lp426
I2
aI18
aI20
aI2
aI1
aI3
aI0
aa(lp427
I1
aI2
aI3
aI1
aI0
aI1
aI0
aa(lp428
I2
aI0
aI2
aI9
aI2
aI11
aI0
aa(lp429
I8
aI1
aI9
aI4
aI2
aI6
aI0
aa(lp430
I1
aI0
aI1
aI65
aI6
aI71
aI0
aa(lp431
I1
aI0
aI1
aI1
aI2
aI3
aI0
aa(lp432
I2
aI0
aI2
aI4
aI0
aI4
aI0
aa(lp433
I8
aI2
aI10
aI10
aI3
aI13
aI0
aa(lp434
I3
aI0
aI3
aI0
aI1
aI1
aI0
aa(lp435
I19
aI4
aI23
aI6
aI5
aI11
aI0
aa(lp436
I1
aI6
aI7
aI0
aI58
aI58
aI0
aa(lp437
I6
aI7
aI13
aI4
aI1
aI5
aI0
aa(lp438
I0
aI0
aI0
aI4
aI1
aI5
aI0
aa(lp439
I0
aI0
aI0
aI3
aI4
aI7
aI0
aa(lp440
I9
aI1
aI10
aI2
aI0
aI2
aI0
aa(lp441
I0
aI5
aI5
aI0
aI0
aI0
aI0
aa(lp442
I5
aI2
aI7
aI0
aI1
aI1
aI0
aa(lp443
I2
aI0
aI2
aI1
aI0
aI1
aI0
aa(lp444
I37
aI1
aI38
aI2
aI0
aI2
aI0
aa(lp445
I5
aI5
aI10
aI2
aI5
aI7
aI0
aa(lp446
I2
aI0
aI2
aI4
aI2
aI6
aI0
aa(lp447
I1
aI0
aI1
aI26
aI2
aI28
aI0
aa(lp448
I2
aI1
aI3
aI0
aI0
aI0
aI0
aa(lp449
I0
aI0
aI0
aI0
aI2
aI2
aI0
aa(lp450
I2
aI0
aI2
aI0
aI0
aI0
aI0
aa(lp451
I2
aI2
aI4
aI1
aI4
aI5
aI0
aa(lp452
I7
aI1
aI8
aI0
aI0
aI0
aI0
aa(lp453
I0
aI0
aI0
aI1
aI0
aI1
aI0
aa(lp454
I10
aI22
aI32
aI1
aI2
aI3
aI0
aa(lp455
I12
aI2
aI14
aI2
aI1
aI3
aI0
aa(lp456
I0
aI0
aI0
aI14
aI7
aI21
aI0
aa(lp457
I1
aI0
aI1
aI4
aI0
aI4
aI0
aa(lp458
I3
aI3
aI6
aI4
aI4
aI8
aI0
aa(lp459
I0
aI0
aI0
aI2
aI0
aI2
aI0
aa(lp460
I3
aI0
aI3
aI4
aI0
aI4
aI0
aa(lp461
I0
aI0
aI0
aI1
aI0
aI1
aI0
aa(lp462
I8
aI0
aI8
aI2
aI0
aI2
aI0
aa(lp463
I4
aI1
aI5
aI7
aI1
aI8
aI0
aa(lp464
I2
aI3
aI5
aI12
aI7
aI19
aI1
aa(lp465
I1
aI1
aI2
aI1
aI0
aI1
aI0
aa(lp466
I10
aI0
aI10
aI4
aI0
aI4
aI0
aa(lp467
I12
aI2
aI14
aI5
aI1
aI6
aI0
aa(lp468
I0
aI1
aI1
aI0
aI2
aI2
aI0
aa(lp469
I0
aI0
aI0
aI0
aI0
aI0
aI0
aa(lp470
I3
aI0
aI3
aI6
aI0
aI6
aI0
aa(lp471
I0
aI0
aI0
aI1
aI0
aI1
aI0
aa(lp472
I3
aI0
aI3
aI52
aI9
aI61
aI0
aa(lp473
I6
aI0
aI6
aI8
aI5
aI13
aI0
aa(lp474
I0
aI0
aI0
aI2
aI1
aI3
aI0
aa(lp475
I1
aI0
aI1
aI17
aI13
aI30
aI0
aa(lp476
I1
aI0
aI1
aI6
aI2
aI8
aI0
aa(lp477
I0
aI0
aI0
aI3
aI0
aI3
aI0
aa(lp478
I0
aI1
aI1
aI1
aI0
aI1
aI0
aa(lp479
I7
aI2
aI9
aI2
aI15
aI17
aI0
aa(lp480
I9
aI0
aI9
aI11
aI2
aI13
aI0
aa(lp481
I0
aI0
aI0
aI0
aI0
aI0
aI0
aa(lp482
I0
aI0
aI0
aI1
aI0
aI1
aI0
aa(lp483
I2
aI0
aI2
aI1
aI0
aI1
aI0
aa(lp484
I2
aI0
aI2
aI7
aI5
aI12
aI0
aa(lp485
I20
aI5
aI25
aI1
aI0
aI1
aI0
aa(lp486
I6
aI0
aI6
aI9
aI0
aI9
aI0
aa(lp487
I2
aI4
aI6
aI4
aI7
aI11
aI0
aa(lp488
I6
aI6
aI12
aI12
aI5
aI17
aI0
aa(lp489
I0
aI0
aI0
aI9
aI0
aI9
aI0
aa(lp490
I7
aI1
aI8
aI14
aI8
aI22
aI0
aa(lp491
I4
aI2
aI6
aI0
aI3
aI3
aI0
aa(lp492
I13
aI1
aI14
aI5
aI1
aI6
aI0
aa(lp493
I4
aI2
aI6
aI4
aI0
aI4
aI0
aa(lp494
I2
aI0
aI2
aI0
aI0
aI0
aI0
aa(lp495
I7
aI1
aI8
aI1
aI0
aI1
aI0
aa(lp496
I0
aI0
aI0
aI4
aI0
aI4
aI0
aa(lp497
I7
aI7
aI14
aI0
aI0
aI0
aI0
aa(lp498
I0
aI0
aI0
aI0
aI1
aI1
aI0
aa(lp499
I2
aI1
aI3
aI0
aI0
aI0
aI0
aa(lp500
I11
aI1
aI12
aI2
aI0
aI2
aI0
aa(lp501
I21
aI11
aI32
aI11
aI2
aI13
aI0
aa(lp502
I2
aI0
aI2
aI0
aI0
aI0
aI0
aa(lp503
I2
aI0
aI2
aI1
aI1
aI2
aI0
aa(lp504
I3
aI3
aI6
aI9
aI5
aI14
aI0
aa(lp505
I0
aI0
aI0
aI3
aI2
aI5
aI0
aa(lp506
I1
aI0
aI1
aI1
aI0
aI1
aI0
aa(lp507
I2
aI1
aI3
aI11
aI1
aI12
aI0
aa(lp508
I17
aI5
aI22
aI13
aI4
aI17
aI0
aa(lp509
I5
aI5
aI10
aI2
aI0
aI2
aI0
aa(lp510
I3
aI0
aI3
aI2
aI3
aI5
aI0
aa(lp511
I24
aI2
aI26
aI5
aI3
aI8
aI0
aa(lp512
I1
aI0
aI1
aI0
aI0
aI0
aI0
aa(lp513
I3
aI3
aI6
aI3
aI2
aI5
aI0
aa(lp514
I1
aI8
aI9
aI1
aI1
aI2
aI0
aa(lp515
I2
aI2
aI4
aI15
aI5
aI20
aI0
aa(lp516
I2
aI3
aI5
aI0
aI1
aI1
aI0
aa(lp517
I10
aI0
aI10
aI0
aI0
aI0
aI0
aa(lp518
I1
aI0
aI1
aI3
aI1
aI4
aI0
aa(lp519
I12
aI0
aI12
aI0
aI0
aI0
aI0
aa(lp520
I0
aI0
aI0
aI2
aI2
aI4
aI0
aa(lp521
I11
aI0
aI11
aI6
aI5
aI11
aI0
aa(lp522
I5
aI6
aI11
aI5
aI0
aI5
aI0
aa(lp523
I20
aI5
aI25
aI9
aI4
aI13
aI0
aa(lp524
I0
aI0
aI0
aI4
aI0
aI4
aI0
aa(lp525
I1
aI0
aI1
aI1
aI2
aI3
aI0
aa(lp526
I8
aI1
aI9
aI21
aI8
aI29
aI0
aa(lp527
I2
aI1
aI3
aI0
aI0
aI0
aI0
aa(lp528
I11
aI6
aI17
aI1
aI0
aI1
aI0
aa(lp529
I1
aI0
aI1
aI0
aI0
aI0
aI0
aa(lp530
I2
aI1
aI3
aI0
aI1
aI1
aI0
aa(lp531
I3
aI0
aI3
aI5
aI0
aI5
aI0
aa(lp532
I0
aI0
aI0
aI2
aI0
aI2
aI0
aa(lp533
I11
aI2
aI13
aI1
aI1
aI2
aI0
aa(lp534
I1
aI8
aI9
aI5
aI4
aI9
aI0
aa(lp535
I0
aI0
aI0
aI0
aI0
aI0
aI0
aa(lp536
I5
aI1
aI6
aI1
aI1
aI2
aI0
aa(lp537
I1
aI0
aI1
aI2
aI0
aI2
aI0
aa(lp538
I10
aI4
aI14
aI11
aI6
aI17
aI0
aa(lp539
I1
aI9
aI10
aI1
aI3
aI4
aI0
aa(lp540
I0
aI0
aI0
aI0
aI58
aI58
aI0
aa(lp541
I1
aI0
aI1
aI2
aI1
aI3
aI0
aa(lp542
I2
aI0
aI2
aI5
aI9
aI14
aI0
aa(lp543
I3
aI0
aI3
aI0
aI0
aI0
aI0
aa(lp544
I7
aI0
aI7
aI14
aI2
aI16
aI0
aa(lp545
I1
aI3
aI4
aI7
aI6
aI13
aI0
aa(lp546
I2
aI4
aI6
aI2
aI0
aI2
aI0
aa(lp547
I3
aI10
aI13
aI17
aI11
aI28
aI0
aa(lp548
I1
aI0
aI1
aI1
aI0
aI1
aI1
aa(lp549
I1
aI0
aI1
aI0
aI0
aI0
aI0
aa(lp550
I1
aI0
aI1
aI8
aI2
aI10
aI0
aa(lp551
I1
aI0
aI1
aI4
aI1
aI5
aI0
aa(lp552
I0
aI1
aI1
aI0
aI0
aI0
aI0
aa(lp553
I3
aI0
aI3
aI5
aI0
aI5
aI0
aa(lp554
I1
aI0
aI1
aI4
aI1
aI5
aI0
aa(lp555
I0
aI0
aI0
aI1
aI0
aI1
aI0
aa(lp556
I0
aI0
aI0
aI8
aI1
aI9
aI0
aa(lp557
I2
aI0
aI2
aI0
aI0
aI0
aI0
aa(lp558
I1
aI1
aI2
aI2
aI0
aI2
aI0
aa(lp559
I11
aI22
aI33
aI4
aI3
aI7
aI0
aa(lp560
I0
aI0
aI0
aI1
aI0
aI1
aI0
aa(lp561
I5
aI6
aI11
aI1
aI0
aI1
aI0
aa(lp562
I0
aI0
aI0
aI3
aI1
aI4
aI0
aa(lp563
I1
aI0
aI1
aI3
aI1
aI4
aI0
aa(lp564
I11
aI0
aI11
aI22
aI0
aI22
aI0
aa(lp565
I5
aI5
aI10
aI19
aI6
aI25
aI0
aa(lp566
I17
aI5
aI22
aI34
aI6
aI40
aI0
aa(lp567
I0
aI0
aI0
aI6
aI0
aI6
aI0
aa(lp568
I0
aI1
aI1
aI6
aI2
aI8
aI0
aa(lp569
I2
aI1
aI3
aI0
aI0
aI0
aI0
aa(lp570
I4
aI2
aI6
aI0
aI0
aI0
aI0
aa(lp571
I5
aI6
aI11
aI2
aI0
aI2
aI0
aa(lp572
I1
aI0
aI1
aI4
aI0
aI4
aI0
aa(lp573
I0
aI0
aI0
aI1
aI2
aI3
aI0
aa(lp574
I2
aI2
aI4
aI17
aI15
aI32
aI0
aa(lp575
I11
aI1
aI12
aI0
aI0
aI0
aI0
aa(lp576
I1
aI0
aI1
aI2
aI0
aI2
aI0
aa(lp577
I10
aI1
aI11
aI0
aI0
aI0
aI0
aa(lp578
I10
aI3
aI13
aI1
aI0
aI1
aI0
aa(lp579
I10
aI0
aI10
aI0
aI1
aI1
aI0
aa(lp580
I1
aI0
aI1
aI2
aI0
aI2
aI0
aa(lp581
I0
aI1
aI1
aI0
aI1
aI1
aI0
aa(lp582
I6
aI1
aI7
aI3
aI0
aI3
aI0
aa(lp583
I3
aI0
aI3
aI6
aI2
aI8
aI0
aa(lp584
I10
aI5
aI15
aI6
aI2
aI8
aI0
aa(lp585
I4
aI1
aI5
aI1
aI0
aI1
aI0
aa(lp586
I1
aI4
aI5
aI1
aI0
aI1
aI0
aa(lp587
I0
aI0
aI0
aI0
aI0
aI0
aI0
aa(lp588
I20
aI3
aI23
aI37
aI1
aI38
aI0
aa(lp589
I4
aI8
aI12
aI0
aI0
aI0
aI0
aa(lp590
I0
aI0
aI0
aI3
aI0
aI3
aI0
aa(lp591
I2
aI0
aI2
aI7
aI3
aI10
aI0
aa(lp592
I0
aI0
aI0
aI20
aI0
aI20
aI0
aa(lp593
I3
aI9
aI12
aI0
aI1
aI1
aI0
aa(lp594
I1
aI0
aI1
aI0
aI0
aI0
aI0
aa(lp595
I9
aI2
aI11
aI5
aI3
aI8
aI0
aa(lp596
I3
aI1
aI4
aI0
aI0
aI0
aI0
aa(lp597
I0
aI0
aI0
aI0
aI3
aI3
aI0
aa(lp598
I10
aI3
aI13
aI1
aI0
aI1
aI0
aa(lp599
I3
aI3
aI6
aI0
aI0
aI0
aI0
aa(lp600
I2
aI1
aI3
aI5
aI25
aI30
aI0
aa(lp601
I0
aI6
aI6
aI4
aI3
aI7
aI0
aa(lp602
I5
aI19
aI24
aI0
aI0
aI0
aI0
aa(lp603
I1
aI3
aI4
aI12
aI4
aI16
aI0
aa(lp604
I0
aI0
aI0
aI0
aI1
aI1
aI0
aa(lp605
I0
aI1
aI1
aI7
aI8
aI15
aI0
aa(lp606
I7
aI1
aI8
aI0
aI1
aI1
aI0
aa(lp607
I0
aI0
aI0
aI21
aI20
aI41
aI0
aa(lp608
I1
aI2
aI3
aI81
aI25
aI106
aI0
aa(lp609
I7
aI8
aI15
aI10
aI2
aI12
aI0
aa(lp610
I51
aI56
aI107
aI0
aI0
aI0
aI0
aa(lp611
I0
aI1
aI1
aI6
aI13
aI19
aI0
aa(lp612
I1
aI1
aI2
aI6
aI7
aI13
aI0
aa(lp613
I1
aI4
aI5
aI0
aI4
aI4
aI0
aa(lp614
I3
aI9
aI12
aI37
aI12
aI49
aI0
aa(lp615
I0
aI0
aI0
aI70
aI12
aI82
aI0
aa(lp616
I0
aI0
aI0
aI85
aI22
aI107
aI0
aa(lp617
I81
aI25
aI106
aI0
aI0
aI0
aI0
aa(lp618
I4
aI2
aI6
aI6
aI6
aI12
aI0
aa(lp619
I54
aI22
aI76
aI0
aI0
aI0
aI0
aa(lp620
I85
aI22
aI107
aI4
aI8
aI12
aI0
aa(lp621
I1
aI0
aI1
aI6
aI13
aI19
aI0
aa(lp622
I5
aI3
aI8
aI5
aI7
aI12
aI0
aa(lp623
I8
aI17
aI25
aI0
aI1
aI1
aI0
aa(lp624
I0
aI9
aI9
aI7
aI1
aI8
aI1
aa(lp625
I0
aI0
aI0
aI3
aI12
aI15
aI0
aa(lp626
I23
aI25
aI48
aI0
aI13
aI13
aI0
aa(lp627
I3
aI1
aI4
aI10
aI15
aI25
aI0
aa(lp628
I0
aI3
aI3
aI7
aI2
aI9
aI0
aa(lp629
I70
aI12
aI82
aI1
aI0
aI1
aI0
aa(lp630
I14
aI13
aI27
aI1
aI1
aI2
aI0
aa(lp631
I3
aI0
aI3
aI257
aI74
aI331
aI0
aa(lp632
I2
aI4
aI6
aI3
aI1
aI4
aI1
aa(lp633
I0
aI0
aI0
aI23
aI25
aI48
aI0
aa(lp634
I313
aI185
aI498
aI0
aI3
aI3
aI1
aa(lp635
I1
aI0
aI1
aI2
aI0
aI2
aI0
aa(lp636
I26
aI21
aI47
aI0
aI2
aI2
aI0
aa(lp637
I129
aI33
aI162
aI4
aI0
aI4
aI0
aa(lp638
I1
aI0
aI1
aI8
aI8
aI16
aI0
aa(lp639
I95
aI24
aI119
aI2
aI38
aI40
aI4
aa(lp640
I95
aI24
aI119
aI0
aI0
aI0
aI0
aa(lp641
I51
aI56
aI107
aI2
aI6
aI8
aI0
aa(lp642
I32
aI50
aI82
aI0
aI0
aI0
aI0
aa(lp643
I1
aI1
aI2
aI0
aI7
aI7
aI0
aa(lp644
I6
aI7
aI13
aI0
aI0
aI0
aI0
aa(lp645
I313
aI185
aI498
aI0
aI0
aI0
aI0
aa(lp646
I0
aI0
aI0
aI313
aI185
aI498
aI0
aa(lp647
I3
aI3
aI6
aI1
aI24
aI25
aI0
aa(lp648
I129
aI33
aI162
aI0
aI0
aI0
aI0
aa(lp649
I0
aI0
aI0
aI36
aI46
aI82
aI0
aa(lp650
I37
aI12
aI49
aI3
aI1
aI4
aI0
aa(lp651
I0
aI0
aI0
aI129
aI33
aI162
aI0
aa(lp652
I4
aI6
aI10
aI6
aI5
aI11
aI1
aa(lp653
I2
aI1
aI3
aI2
aI1
aI3
aI0
aa(lp654
I26
aI6
aI32
aI56
aI16
aI72
aI1
aa(lp655
I6
aI3
aI9
aI81
aI25
aI106
aI0
aa(lp656
I4
aI0
aI4
aI0
aI2
aI2
aI0
aa(lp657
I1
aI3
aI4
aI1
aI20
aI21
aI0
aa(lp658
I0
aI0
aI0
aI75
aI31
aI106
aI0
aa(lp659
I26
aI17
aI43
aI2
aI3
aI5
aI0
aa(lp660
I31
aI32
aI63
aI0
aI3
aI3
aI0
aa(lp661
I18
aI9
aI27
aI26
aI1
aI27
aI0
aa(lp662
I0
aI1
aI1
aI7
aI8
aI15
aI0
aa(lp663
I0
aI0
aI0
aI17
aI7
aI24
aI0
aa(lp664
I0
aI2
aI2
aI0
aI0
aI0
aI0
aa(lp665
I75
aI31
aI106
aI2
aI22
aI24
aI1
aa(lp666
I0
aI0
aI0
aI28
aI11
aI39
aI0
aa(lp667
I0
aI0
aI0
aI3
aI1
aI4
aI0
aa(lp668
I58
aI43
aI101
aI0
aI1
aI1
aI0
aa(lp669
I1
aI0
aI1
aI1
aI0
aI1
aI0
aa(lp670
I0
aI0
aI0
aI15
aI56
aI71
aI0
aa(lp671
I1
aI1
aI2
aI22
aI21
aI43
aI0
aa(lp672
I5
aI1
aI6
aI15
aI7
aI22
aI0
aa(lp673
I1
aI1
aI2
aI1
aI1
aI2
aI0
aa(lp674
I59
aI28
aI87
aI0
aI0
aI0
aI0
aa(lp675
I3
aI5
aI8
aI1
aI14
aI15
aI0
aa(lp676
I0
aI0
aI0
aI5
aI18
aI23
aI0
aa(lp677
I4
aI9
aI13
aI0
aI2
aI2
aI0
aa(lp678
I11
aI12
aI23
aI0
aI0
aI0
aI0
aa(lp679
I2
aI22
aI24
aI10
aI4
aI14
aI0
aa(lp680
I5
aI9
aI14
aI0
aI1
aI1
aI0
aa(lp681
I21
aI3
aI24
aI3
aI1
aI4
aI0
aa(lp682
I0
aI0
aI0
aI5
aI17
aI22
aI0
aa(lp683
I30
aI45
aI75
aI0
aI2
aI2
aI0
aa(lp684
I0
aI1
aI1
aI8
aI32
aI40
aI0
aa(lp685
I129
aI33
aI162
aI0
aI0
aI0
aI0
aa(lp686
I10
aI63
aI73
aI1
aI21
aI22
aI1
aa(lp687
I3
aI1
aI4
aI257
aI74
aI331
aI0
aa(lp688
I11
aI1
aI12
aI0
aI1
aI1
aI0
aa(lp689
I0
aI0
aI0
aI0
aI0
aI0
aI0
aa(lp690
I34
aI8
aI42
aI8
aI12
aI20
aI0
aa(lp691
I61
aI26
aI87
aI0
aI2
aI2
aI0
aa(lp692
I8
aI11
aI19
aI2
aI0
aI2
aI0
aa(lp693
I0
aI0
aI0
aI70
aI12
aI82
aI0
aa(lp694
I0
aI0
aI0
aI12
aI8
aI20
aI0
aa(lp695
I2
aI4
aI6
aI5
aI19
aI24
aI0
aa(lp696
I0
aI3
aI3
aI83
aI67
aI150
aI0
aa(lp697
I2
aI0
aI2
aI23
aI8
aI31
aI0
aa(lp698
I0
aI0
aI0
aI129
aI33
aI162
aI0
aa(lp699
I10
aI15
aI25
aI5
aI17
aI22
aI0
aa(lp700
I8
aI32
aI40
aI12
aI28
aI40
aI1
aa(lp701
I129
aI33
aI162
aI0
aI0
aI0
aI0
aa(lp702
I4
aI8
aI12
aI2
aI3
aI5
aI0
aa(lp703
I2
aI11
aI13
aI0
aI0
aI0
aI0
aa(lp704
I313
aI185
aI498
aI0
aI0
aI0
aI0
aa(lp705
I43
aI49
aI92
aI2
aI8
aI10
aI0
aa(lp706
I3
aI1
aI4
aI13
aI15
aI28
aI0
aa(lp707
I257
aI74
aI331
aI4
aI1
aI5
aI0
aa(lp708
I11
aI4
aI15
aI50
aI30
aI80
aI0
aa(lp709
I10
aI5
aI15
aI0
aI0
aI0
aI0
aa(lp710
I2
aI38
aI40
aI0
aI0
aI0
aI0
aa(lp711
I313
aI185
aI498
aI0
aI0
aI0
aI0
aa(lp712
I2
aI0
aI2
aI4
aI0
aI4
aI0
aa(lp713
I0
aI0
aI0
aI23
aI25
aI48
aI0
aa(lp714
I2
aI3
aI5
aI3
aI4
aI7
aI0
aa(lp715
I0
aI0
aI0
aI10
aI8
aI18
aI0
aa(lp716
I2
aI0
aI2
aI1
aI1
aI2
aI0
aa(lp717
I1
aI14
aI15
aI54
aI22
aI76
aI0
aa(lp718
I21
aI20
aI41
aI5
aI2
aI7
aI0
aa(lp719
I1
aI3
aI4
aI0
aI1
aI1
aI0
aa(lp720
I2
aI0
aI2
aI0
aI10
aI10
aI0
aa(lp721
I42
aI13
aI55
aI0
aI1
aI1
aI0
aa(lp722
I0
aI1
aI1
aI1
aI0
aI1
aI0
aa(lp723
I4
aI7
aI11
aI1
aI0
aI1
aI0
aa(lp724
I1
aI8
aI9
aI10
aI5
aI15
aI0
aa(lp725
I5
aI6
aI11
aI0
aI0
aI0
aI0
aa(lp726
I5
aI1
aI6
aI257
aI74
aI331
aI0
aa(lp727
I0
aI1
aI1
aI62
aI20
aI82
aI0
aa(lp728
I0
aI1
aI1
aI0
aI1
aI1
aI0
aa(lp729
I1
aI2
aI3
aI15
aI15
aI30
aI0
aa(lp730
I1
aI1
aI2
aI1
aI2
aI3
aI0
aa(lp731
I0
aI3
aI3
aI1
aI32
aI33
aI0
aa(lp732
I75
aI31
aI106
aI2
aI1
aI3
aI0
aa(lp733
I4
aI9
aI13
aI0
aI1
aI1
aI0
aa(lp734
I1
aI2
aI3
aI12
aI8
aI20
aI0
aa(lp735
I13
aI3
aI16
aI0
aI0
aI0
aI0
aa(lp736
I25
aI17
aI42
aI2
aI10
aI12
aI0
aa(lp737
I3
aI1
aI4
aI12
aI12
aI24
aI0
aa(lp738
I1
aI0
aI1
aI257
aI74
aI331
aI0
aa(lp739
I3
aI2
aI5
aI61
aI26
aI87
aI0
aa(lp740
I4
aI0
aI4
aI4
aI2
aI6
aI0
aa(lp741
I3
aI11
aI14
aI0
aI21
aI21
aI1
aa(lp742
I1
aI0
aI1
aI0
aI20
aI20
aI0
aa(lp743
I0
aI1
aI1
aI25
aI12
aI37
aI0
aa(lp744
I3
aI5
aI8
aI19
aI64
aI83
aI0
aa(lp745
I12
aI17
aI29
aI2
aI18
aI20
aI0
aa(lp746
I25
aI16
aI41
aI2
aI5
aI7
aI1
aa(lp747
I1
aI0
aI1
aI10
aI6
aI16
aI0
aa(lp748
I43
aI26
aI69
aI1
aI4
aI5
aI0
aa(lp749
I8
aI22
aI30
aI3
aI2
aI5
aI0
aa(lp750
I0
aI0
aI0
aI3
aI7
aI10
aI0
aa(lp751
I4
aI11
aI15
aI0
aI0
aI0
aI0
aa(lp752
I0
aI0
aI0
aI11
aI3
aI14
aI0
aa(lp753
I1
aI4
aI5
aI5
aI3
aI8
aI0
aa(lp754
I5
aI5
aI10
aI0
aI1
aI1
aI0
aa(lp755
I4
aI1
aI5
aI0
aI9
aI9
aI0
aa(lp756
I2
aI0
aI2
aI15
aI27
aI42
aI0
aa(lp757
I5
aI19
aI24
aI0
aI0
aI0
aI0
aa(lp758
I40
aI29
aI69
aI4
aI2
aI6
aI0
aa(lp759
I0
aI0
aI0
aI1
aI8
aI9
aI0
aa(lp760
I9
aI20
aI29
aI9
aI2
aI11
aI0
aa(lp761
I1
aI0
aI1
aI0
aI0
aI0
aI0
aa(lp762
I8
aI19
aI27
aI7
aI3
aI10
aI0
aa(lp763
I61
aI26
aI87
aI5
aI2
aI7
aI0
aa(lp764
I3
aI18
aI21
aI0
aI1
aI1
aI0
aa(lp765
I15
aI13
aI28
aI8
aI2
aI10
aI0
aa(lp766
I1
aI3
aI4
aI56
aI16
aI72
aI0
aa(lp767
I0
aI0
aI0
aI1
aI32
aI33
aI0
aa(lp768
I2
aI3
aI5
aI22
aI21
aI43
aI0
aa(lp769
I19
aI28
aI47
aI1
aI1
aI2
aI0
aa(lp770
I2
aI17
aI19
aI2
aI0
aI2
aI0
aa(lp771
I0
aI3
aI3
aI2
aI22
aI24
aI0
aa(lp772
I32
aI50
aI82
aI0
aI0
aI0
aI0
aa(lp773
I1
aI3
aI4
aI3
aI0
aI3
aI0
aa(lp774
I0
aI0
aI0
aI10
aI2
aI12
aI0
aa(lp775
I15
aI13
aI28
aI3
aI3
aI6
aI0
aa(lp776
I0
aI1
aI1
aI38
aI37
aI75
aI0
aa(lp777
I0
aI19
aI19
aI0
aI1
aI1
aI0
aa(lp778
I7
aI7
aI14
aI1
aI1
aI2
aI0
aa(lp779
I0
aI2
aI2
aI51
aI56
aI107
aI0
aa(lp780
I0
aI1
aI1
aI26
aI22
aI48
aI0
aa(lp781
I0
aI1
aI1
aI4
aI0
aI4
aI0
aa(lp782
I0
aI0
aI0
aI62
aI20
aI82
aI0
aa(lp783
I1
aI5
aI6
aI19
aI40
aI59
aI0
aa(lp784
I83
aI67
aI150
aI1
aI0
aI1
aI0
aa(lp785
I5
aI2
aI7
aI1
aI1
aI2
aI0
aa(lp786
I2
aI0
aI2
aI10
aI14
aI24
aI0
aa(lp787
I0
aI0
aI0
aI3
aI41
aI44
aI0
aa(lp788
I0
aI5
aI5
aI0
aI22
aI22
aI0
aa(lp789
I0
aI1
aI1
aI2
aI1
aI3
aI0
aa(lp790
I0
aI1
aI1
aI0
aI3
aI3
aI0
aa(lp791
I13
aI6
aI19
aI8
aI2
aI10
aI1
aa(lp792
I24
aI7
aI31
aI75
aI31
aI106
aI0
aa(lp793
I2
aI10
aI12
aI0
aI0
aI0
aI0
aa(lp794
I43
aI26
aI69
aI0
aI3
aI3
aI0
aa(lp795
I4
aI2
aI6
aI11
aI22
aI33
aI0
aa(lp796
I1
aI1
aI2
aI31
aI32
aI63
aI0
aa(lp797
I2
aI2
aI4
aI1
aI1
aI2
aI0
aa(lp798
I12
aI3
aI15
aI26
aI21
aI47
aI0
aa(lp799
I0
aI5
aI5
aI0
aI1
aI1
aI0
aa(lp800
I0
aI1
aI1
aI5
aI3
aI8
aI0
aa(lp801
I8
aI12
aI20
aI43
aI24
aI67
aI0
aa(lp802
I10
aI1
aI11
aI1
aI0
aI1
aI0
aa(lp803
I58
aI43
aI101
aI2
aI1
aI3
aI0
aa(lp804
I0
aI1
aI1
aI2
aI1
aI3
aI0
aa(lp805
I4
aI2
aI6
aI4
aI5
aI9
aI0
aa(lp806
I2
aI0
aI2
aI11
aI4
aI15
aI0
aa(lp807
I36
aI46
aI82
aI0
aI2
aI2
aI0
aa(lp808
I2
aI1
aI3
aI257
aI74
aI331
aI0
aa(lp809
I3
aI2
aI5
aI2
aI2
aI4
aI0
aa(lp810
I16
aI33
aI49
aI2
aI1
aI3
aI0
aa(lp811
I10
aI13
aI23
aI3
aI4
aI7
aI0
aa(lp812
I2
aI4
aI6
aI56
aI16
aI72
aI0
aa(lp813
I0
aI2
aI2
aI50
aI30
aI80
aI0
aa(lp814
I0
aI1
aI1
aI1
aI0
aI1
aI0
aa(lp815
I3
aI0
aI3
aI0
aI21
aI21
aI0
aa(lp816
I8
aI15
aI23
aI9
aI2
aI11
aI0
aa(lp817
I313
aI185
aI498
aI2
aI1
aI3
aI0
aa(lp818
I0
aI0
aI0
aI14
aI13
aI27
aI0
aa(lp819
I0
aI1
aI1
aI21
aI11
aI32
aI0
aa(lp820
I83
aI67
aI150
aI0
aI1
aI1
aI0
aa(lp821
I0
aI1
aI1
aI313
aI185
aI498
aI0
aa(lp822
I4
aI1
aI5
aI2
aI3
aI5
aI0
aa(lp823
I0
aI1
aI1
aI129
aI33
aI162
aI0
aa(lp824
I0
aI1
aI1
aI20
aI9
aI29
aI0
aa(lp825
I1
aI4
aI5
aI1
aI0
aI1
aI0
aa(lp826
I0
aI0
aI0
aI1
aI2
aI3
aI0
aa(lp827
I0
aI0
aI0
aI1
aI2
aI3
aI0
aa(lp828
I0
aI2
aI2
aI95
aI24
aI119
aI0
aa(lp829
I1
aI1
aI2
aI0
aI0
aI0
aI0
aa(lp830
I0
aI1
aI1
aI1
aI11
aI12
aI0
aa(lp831
I0
aI6
aI6
aI2
aI1
aI3
aI0
aa(lp832
I0
aI0
aI0
aI81
aI25
aI106
aI0
aa(lp833
I9
aI1
aI10
aI7
aI1
aI8
aI0
aa(lp834
I4
aI6
aI10
aI0
aI0
aI0
aI0
aa(lp835
I1
aI0
aI1
aI46
aI27
aI73
aI0
aa(lp836
I3
aI9
aI12
aI2
aI10
aI12
aI0
aa(lp837
I5
aI3
aI8
aI4
aI11
aI15
aI0
aa(lp838
I1
aI1
aI2
aI10
aI13
aI23
aI0
aa(lp839
I1
aI1
aI2
aI3
aI0
aI3
aI0
aa(lp840
I0
aI0
aI0
aI1
aI1
aI2
aI0
aa(lp841
I1
aI2
aI3
aI313
aI185
aI498
aI0
aa(lp842
I4
aI2
aI6
aI8
aI4
aI12
aI0
aa(lp843
I1
aI14
aI15
aI3
aI2
aI5
aI0
aa(lp844
I2
aI15
aI17
aI1
aI1
aI2
aI0
aa(lp845
I40
aI29
aI69
aI6
aI2
aI8
aI0
aa(lp846
I0
aI1
aI1
aI15
aI56
aI71
aI0
aa(lp847
I2
aI0
aI2
aI0
aI2
aI2
aI0
aa(lp848
I0
aI1
aI1
aI22
aI21
aI43
aI0
aa.